; Function Attrs: nounwind sspstrong uwtable
define dso_local i64 @qemu_iovec_from_buf(ptr noundef readonly captures(none) %qiov, i64 noundef %offset, ptr noundef readonly captures(none) %buf, i64 noundef %bytes) local_unnamed_addr #0 {
entry:
  %0 = load ptr, ptr %qiov, align 8
  %niov = getelementptr inbounds nuw i8, ptr %qiov, i64 8
  %1 = load i32, ptr %niov, align 8
  %tobool.i = icmp ne i32 %1, 0
  %2 = or i64 %bytes, %offset
  %or.cond25.i.i = icmp ne i64 %2, 0
  %or.cond2227.i.i = and i1 %or.cond25.i.i, %tobool.i
  br i1 %or.cond2227.i.i, label %for.body.preheader.i.i, label %for.end.i.i

for.body.preheader.i.i:                           ; preds = %entry
  %3 = zext i32 %1 to i64
  br label %for.body.i.i

for.body.i.i:                                     ; preds = %for.inc.i.i, %for.body.preheader.i.i
  %indvars.iv.i.i = phi i64 [ 0, %for.body.preheader.i.i ], [ %indvars.iv.next.i.i, %for.inc.i.i ]
  %offset.addr.030.i.i = phi i64 [ %offset, %for.body.preheader.i.i ], [ %offset.addr.1.i.i, %for.inc.i.i ]
  %done.029.i.i = phi i64 [ 0, %for.body.preheader.i.i ], [ %done.1.i.i, %for.inc.i.i ]
  %arrayidx.i.i = getelementptr %struct.iovec, ptr %0, i64 %indvars.iv.i.i
  %iov_len.i.i = getelementptr inbounds nuw i8, ptr %arrayidx.i.i, i64 8
  %4 = load i64, ptr %iov_len.i.i, align 8
  %cmp2.i.i = icmp ult i64 %offset.addr.030.i.i, %4
  br i1 %cmp2.i.i, label %if.then.i.i, label %if.else.i.i

if.then.i.i:                                      ; preds = %for.body.i.i
  %sub.i.i = sub nuw i64 %4, %offset.addr.030.i.i
  %sub6.i.i = sub i64 %bytes, %done.029.i.i
  %cond.i.i = tail call i64 @llvm.umin.i64(i64 %sub.i.i, i64 %sub6.i.i)
  %5 = load ptr, ptr %arrayidx.i.i, align 8
  %add.ptr.i.i = getelementptr i8, ptr %5, i64 %offset.addr.030.i.i
  %add.ptr10.i.i = getelementptr i8, ptr %buf, i64 %done.029.i.i
  tail call void @llvm.memcpy.p0.p0.i64(ptr align 1 %add.ptr.i.i, ptr readonly align 1 %add.ptr10.i.i, i64 %cond.i.i, i1 false)
  %add.i.i = add i64 %cond.i.i, %done.029.i.i
  br label %for.inc.i.i

if.else.i.i:                                      ; preds = %for.body.i.i
  %sub14.i.i = sub nuw i64 %offset.addr.030.i.i, %4
  br label %for.inc.i.i

for.inc.i.i:                                      ; preds = %if.else.i.i, %if.then.i.i
  %done.1.i.i = phi i64 [ %add.i.i, %if.then.i.i ], [ %done.029.i.i, %if.else.i.i ]
  %offset.addr.1.i.i = phi i64 [ 0, %if.then.i.i ], [ %sub14.i.i, %if.else.i.i ]
  %indvars.iv.next.i.i = add nuw nsw i64 %indvars.iv.i.i, 1
  %tobool.not.i.i = icmp ne i64 %offset.addr.1.i.i, 0
  %cmp.i.i = icmp ult i64 %done.1.i.i, %bytes
  %or.cond.i.i = select i1 %tobool.not.i.i, i1 true, i1 %cmp.i.i
  %cmp1.i.i = icmp samesign ult i64 %indvars.iv.next.i.i, %3
  %or.cond22.i.i = select i1 %or.cond.i.i, i1 %cmp1.i.i, i1 false
  br i1 %or.cond22.i.i, label %for.body.i.i, label %for.end.i.i, !llvm.loop !5

for.end.i.i:                                      ; preds = %for.inc.i.i, %entry
  %done.0.lcssa.i.i = phi i64 [ 0, %entry ], [ %done.1.i.i, %for.inc.i.i ]
  %offset.addr.0.lcssa.i.i = phi i64 [ %offset, %entry ], [ %offset.addr.1.i.i, %for.inc.i.i ]
  %cmp15.i.i = icmp eq i64 %offset.addr.0.lcssa.i.i, 0
  br i1 %cmp15.i.i, label %iov_from_buf.exit, label %if.else17.i.i

if.else17.i.i:                                    ; preds = %for.end.i.i
  tail call void @__assert_fail(ptr noundef nonnull @.str, ptr noundef nonnull @.str.1, i32 noundef 39, ptr noundef nonnull @__PRETTY_FUNCTION__.iov_from_buf_full) #17
  unreachable

iov_from_buf.exit:                                ; preds = %for.end.i.i
  ret i64 %done.0.lcssa.i.i
}